target datalayout = "e-m:e-p270:32:32-p271:32:32-p272:64:64-i64:64-i128:128-f80:128-n8:16:32:64-S128"
target triple = "x86_64-pc-linux-gnu"

%"class.vcg::Color4" = type { %"class.vcg::Point4.1" }
%"class.vcg::Point4.1" = type { [4 x i8] }
%class.QFont = type <{ %class.QExplicitlySharedDataPointer, i32, [4 x i8] }>
%class.QExplicitlySharedDataPointer = type { ptr }
%"class.vcg::Point3" = type { [3 x float] }
%"class.vcg::MovableCoordinateFrame" = type { %"class.vcg::CoordinateFrame.base", %"class.vcg::Point3", %"class.vcg::Quaternion" }
%"class.vcg::CoordinateFrame.base" = type <{ ptr, %"class.vcg::Color4", %"class.vcg::Color4", %"class.vcg::Color4", %"class.vcg::Color4", float, float, %class.QFont, i8, i8, i8 }>
%"class.vcg::Quaternion" = type { %"class.vcg::Point4" }
%"class.vcg::Point4" = type { [4 x float] }

; Function Attrs: mustprogress nounwind uwtable
define linkonce_odr noundef nonnull align 4 dereferenceable(4) ptr @_ZN3vcg6Point4IfE1VEi(ptr noundef nonnull align 4 dereferenceable(16) %0, i32 noundef %1) #0 comdat align 2 {
  %3 = alloca ptr, align 8
  %4 = alloca i32, align 4
  store ptr %0, ptr %3, align 8
  store i32 %1, ptr %4, align 4
  %5 = load ptr, ptr %3, align 8
  %6 = getelementptr inbounds %"class.vcg::Point4", ptr %5, i32 0, i32 0
  %7 = load i32, ptr %4, align 4
  %8 = sext i32 %7 to i64
  %9 = getelementptr inbounds [4 x float], ptr %6, i64 0, i64 %8
  ret ptr %9
}

; Function Attrs: mustprogress nounwind uwtable
define linkonce_odr noundef float @_ZN3vcg4math4SqrtEf(float noundef %0) #0 comdat {
  %2 = alloca float, align 4
  store float %0, ptr %2, align 4
  %3 = load float, ptr %2, align 4
  %4 = call float @sqrtf(float noundef %3) #7
  ret float %4
}

; Function Attrs: mustprogress nounwind uwtable
define linkonce_odr noundef nonnull align 4 dereferenceable(4) ptr @_ZN3vcg6Point3IfEixEi(ptr noundef nonnull align 4 dereferenceable(12) %0, i32 noundef %1) #0 comdat align 2 {
  %3 = alloca ptr, align 8
  %4 = alloca i32, align 4
  store ptr %0, ptr %3, align 8
  store i32 %1, ptr %4, align 4
  %5 = load ptr, ptr %3, align 8
  %6 = getelementptr inbounds %"class.vcg::Point3", ptr %5, i32 0, i32 0
  %7 = load i32, ptr %4, align 4
  %8 = sext i32 %7 to i64
  %9 = getelementptr inbounds [3 x float], ptr %6, i64 0, i64 %8
  ret ptr %9
}

; Function Attrs: mustprogress uwtable
define linkonce_odr noundef nonnull align 4 dereferenceable(4) ptr @_ZN3vcg10QuaternionIfE1VEi(ptr noundef nonnull align 4 dereferenceable(16) %0, i32 noundef %1) #1 comdat align 2 {
  %3 = alloca ptr, align 8
  %4 = alloca i32, align 4
  store ptr %0, ptr %3, align 8
  store i32 %1, ptr %4, align 4
  %5 = load ptr, ptr %3, align 8
  %6 = load i32, ptr %4, align 4
  %7 = call noundef nonnull align 4 dereferenceable(4) ptr @_ZN3vcg6Point4IfE1VEi(ptr noundef nonnull align 4 dereferenceable(16) %5, i32 noundef %6)
  ret ptr %7
}

; Function Attrs: mustprogress nounwind uwtable
define linkonce_odr noundef float @_ZN3vcg4math3CosEf(float noundef %0) #0 comdat {
  %2 = alloca float, align 4
  store float %0, ptr %2, align 4
  %3 = load float, ptr %2, align 4
  %4 = call float @cosf(float noundef %3) #7
  ret float %4
}

; Function Attrs: mustprogress nounwind uwtable
define linkonce_odr noundef float @_ZN3vcg4math3SinEf(float noundef %0) #0 comdat {
  %2 = alloca float, align 4
  store float %0, ptr %2, align 4
  %3 = load float, ptr %2, align 4
  %4 = call float @sinf(float noundef %3) #7
  ret float %4
}

; Function Attrs: mustprogress uwtable
define linkonce_odr noundef nonnull align 4 dereferenceable(12) ptr @_ZN3vcg6Point3IfE9NormalizeEv(ptr noundef nonnull align 4 dereferenceable(12) %0) #1 comdat align 2 {
  %2 = alloca ptr, align 8
  %3 = alloca float, align 4
  store ptr %0, ptr %2, align 8
  %4 = load ptr, ptr %2, align 8
  %5 = getelementptr inbounds %"class.vcg::Point3", ptr %4, i32 0, i32 0
  %6 = getelementptr inbounds [3 x float], ptr %5, i64 0, i64 0
  %7 = load float, ptr %6, align 4
  %8 = getelementptr inbounds %"class.vcg::Point3", ptr %4, i32 0, i32 0
  %9 = getelementptr inbounds [3 x float], ptr %8, i64 0, i64 0
  %10 = load float, ptr %9, align 4
  %11 = getelementptr inbounds %"class.vcg::Point3", ptr %4, i32 0, i32 0
  %12 = getelementptr inbounds [3 x float], ptr %11, i64 0, i64 1
  %13 = load float, ptr %12, align 4
  %14 = getelementptr inbounds %"class.vcg::Point3", ptr %4, i32 0, i32 0
  %15 = getelementptr inbounds [3 x float], ptr %14, i64 0, i64 1
  %16 = load float, ptr %15, align 4
  %17 = fmul float %13, %16
  %18 = call float @llvm.fmuladd.f32(float %7, float %10, float %17)
  %19 = getelementptr inbounds %"class.vcg::Point3", ptr %4, i32 0, i32 0
  %20 = getelementptr inbounds [3 x float], ptr %19, i64 0, i64 2
  %21 = load float, ptr %20, align 4
  %22 = getelementptr inbounds %"class.vcg::Point3", ptr %4, i32 0, i32 0
  %23 = getelementptr inbounds [3 x float], ptr %22, i64 0, i64 2
  %24 = load float, ptr %23, align 4
  %25 = call float @llvm.fmuladd.f32(float %21, float %24, float %18)
  %26 = call noundef float @_ZN3vcg4math4SqrtEf(float noundef %25)
  store float %26, ptr %3, align 4
  %27 = load float, ptr %3, align 4
  %28 = fcmp ogt float %27, 0.000000e+00
  br i1 %28, label %29, label %45

29:                                               ; preds = %1
  %30 = load float, ptr %3, align 4
  %31 = getelementptr inbounds %"class.vcg::Point3", ptr %4, i32 0, i32 0
  %32 = getelementptr inbounds [3 x float], ptr %31, i64 0, i64 0
  %33 = load float, ptr %32, align 4
  %34 = fdiv float %33, %30
  store float %34, ptr %32, align 4
  %35 = load float, ptr %3, align 4
  %36 = getelementptr inbounds %"class.vcg::Point3", ptr %4, i32 0, i32 0
  %37 = getelementptr inbounds [3 x float], ptr %36, i64 0, i64 1
  %38 = load float, ptr %37, align 4
  %39 = fdiv float %38, %35
  store float %39, ptr %37, align 4
  %40 = load float, ptr %3, align 4
  %41 = getelementptr inbounds %"class.vcg::Point3", ptr %4, i32 0, i32 0
  %42 = getelementptr inbounds [3 x float], ptr %41, i64 0, i64 2
  %43 = load float, ptr %42, align 4
  %44 = fdiv float %43, %40
  store float %44, ptr %42, align 4
  br label %45

45:                                               ; preds = %29, %1
  ret ptr %4
}

; Function Attrs: mustprogress uwtable
define linkonce_odr void @_ZN3vcg10QuaternionIfE8FromAxisEfRKNS_6Point3IfEE(ptr noundef nonnull align 4 dereferenceable(16) %0, float noundef %1, ptr noundef nonnull align 4 dereferenceable(12) %2) #1 comdat align 2 {
  %4 = alloca ptr, align 8
  %5 = alloca float, align 4
  %6 = alloca ptr, align 8
  %7 = alloca %"class.vcg::Point3", align 4
  %8 = alloca float, align 4
  store ptr %0, ptr %4, align 8
  store float %1, ptr %5, align 4
  store ptr %2, ptr %6, align 8
  %9 = load ptr, ptr %4, align 8
  %10 = load ptr, ptr %6, align 8
  call void @llvm.memcpy.p0.p0.i64(ptr align 4 %7, ptr align 4 %10, i64 12, i1 false)
  %11 = call noundef nonnull align 4 dereferenceable(12) ptr @_ZN3vcg6Point3IfE9NormalizeEv(ptr noundef nonnull align 4 dereferenceable(12) %7)
  %12 = load float, ptr %5, align 4
  %13 = fdiv float %12, 2.000000e+00
  %14 = call noundef float @_ZN3vcg4math3SinEf(float noundef %13)
  store float %14, ptr %8, align 4
  %15 = load float, ptr %5, align 4
  %16 = fdiv float %15, 2.000000e+00
  %17 = call noundef float @_ZN3vcg4math3CosEf(float noundef %16)
  %18 = call noundef nonnull align 4 dereferenceable(4) ptr @_ZN3vcg10QuaternionIfE1VEi(ptr noundef nonnull align 4 dereferenceable(16) %9, i32 noundef 0)
  store float %17, ptr %18, align 4
  %19 = call noundef nonnull align 4 dereferenceable(4) ptr @_ZN3vcg6Point3IfEixEi(ptr noundef nonnull align 4 dereferenceable(12) %7, i32 noundef 0)
  %20 = load float, ptr %19, align 4
  %21 = load float, ptr %8, align 4
  %22 = fmul float %20, %21
  %23 = call noundef nonnull align 4 dereferenceable(4) ptr @_ZN3vcg10QuaternionIfE1VEi(ptr noundef nonnull align 4 dereferenceable(16) %9, i32 noundef 1)
  store float %22, ptr %23, align 4
  %24 = call noundef nonnull align 4 dereferenceable(4) ptr @_ZN3vcg6Point3IfEixEi(ptr noundef nonnull align 4 dereferenceable(12) %7, i32 noundef 1)
  %25 = load float, ptr %24, align 4
  %26 = load float, ptr %8, align 4
  %27 = fmul float %25, %26
  %28 = call noundef nonnull align 4 dereferenceable(4) ptr @_ZN3vcg10QuaternionIfE1VEi(ptr noundef nonnull align 4 dereferenceable(16) %9, i32 noundef 2)
  store float %27, ptr %28, align 4
  %29 = call noundef nonnull align 4 dereferenceable(4) ptr @_ZN3vcg6Point3IfEixEi(ptr noundef nonnull align 4 dereferenceable(12) %7, i32 noundef 2)
  %30 = load float, ptr %29, align 4
  %31 = load float, ptr %8, align 4
  %32 = fmul float %30, %31
  %33 = call noundef nonnull align 4 dereferenceable(4) ptr @_ZN3vcg10QuaternionIfE1VEi(ptr noundef nonnull align 4 dereferenceable(16) %9, i32 noundef 3)
  store float %32, ptr %33, align 4
  ret void
}

; Function Attrs: mustprogress nounwind uwtable
define linkonce_odr void @_ZN3vcg6Point4IfEC2Ev(ptr noundef nonnull align 4 dereferenceable(16) %0) unnamed_addr #0 comdat align 2 {
  %2 = alloca ptr, align 8
  store ptr %0, ptr %2, align 8
  ret void
}

; Function Attrs: mustprogress uwtable
define linkonce_odr void @_ZN3vcg10QuaternionIfEC2EfRKNS_6Point3IfEE(ptr noundef nonnull align 4 dereferenceable(16) %0, float noundef %1, ptr noundef nonnull align 4 dereferenceable(12) %2) unnamed_addr #1 comdat align 2 {
  %4 = alloca ptr, align 8
  %5 = alloca float, align 4
  %6 = alloca ptr, align 8
  store ptr %0, ptr %4, align 8
  store float %1, ptr %5, align 4
  store ptr %2, ptr %6, align 8
  %7 = load ptr, ptr %4, align 8
  call void @_ZN3vcg6Point4IfEC2Ev(ptr noundef nonnull align 4 dereferenceable(16) %7)
  %8 = load float, ptr %5, align 4
  %9 = load ptr, ptr %6, align 8
  call void @_ZN3vcg10QuaternionIfE8FromAxisEfRKNS_6Point3IfEE(ptr noundef nonnull align 4 dereferenceable(16) %7, float noundef %8, ptr noundef nonnull align 4 dereferenceable(12) %9)
  ret void
}

; Function Attrs: mustprogress nounwind uwtable
define linkonce_odr void @_ZN3vcg6Point3IfEC2Efff(ptr noundef nonnull align 4 dereferenceable(12) %0, float noundef %1, float noundef %2, float noundef %3) unnamed_addr #0 comdat align 2 {
  %5 = alloca ptr, align 8
  %6 = alloca float, align 4
  %7 = alloca float, align 4
  %8 = alloca float, align 4
  store ptr %0, ptr %5, align 8
  store float %1, ptr %6, align 4
  store float %2, ptr %7, align 4
  store float %3, ptr %8, align 4
  %9 = load ptr, ptr %5, align 8
  %10 = load float, ptr %6, align 4
  %11 = getelementptr inbounds %"class.vcg::Point3", ptr %9, i32 0, i32 0
  %12 = getelementptr inbounds [3 x float], ptr %11, i64 0, i64 0
  store float %10, ptr %12, align 4
  %13 = load float, ptr %7, align 4
  %14 = getelementptr inbounds %"class.vcg::Point3", ptr %9, i32 0, i32 0
  %15 = getelementptr inbounds [3 x float], ptr %14, i64 0, i64 1
  store float %13, ptr %15, align 4
  %16 = load float, ptr %8, align 4
  %17 = getelementptr inbounds %"class.vcg::Point3", ptr %9, i32 0, i32 0
  %18 = getelementptr inbounds [3 x float], ptr %17, i64 0, i64 2
  store float %16, ptr %18, align 4
  ret void
}

; Function Attrs: mustprogress uwtable
define void @_ZN3vcg22MovableCoordinateFrame5ResetEbb(ptr noundef nonnull align 8 dereferenceable(80) %0, i1 noundef zeroext %1, i1 noundef zeroext %2) unnamed_addr #1 align 2 {
  %4 = alloca ptr, align 8
  %5 = alloca i8, align 1
  %6 = alloca i8, align 1
  %7 = alloca %"class.vcg::Point3", align 4
  %8 = alloca %"class.vcg::Quaternion", align 4
  %9 = alloca %"class.vcg::Point3", align 4
  store ptr %0, ptr %4, align 8
  %10 = zext i1 %1 to i8
  store i8 %10, ptr %5, align 1
  %11 = zext i1 %2 to i8
  store i8 %11, ptr %6, align 1
  %12 = load ptr, ptr %4, align 8
  %13 = load i8, ptr %5, align 1
  %14 = trunc i8 %13 to i1
  br i1 %14, label %15, label %17

15:                                               ; preds = %3
  call void @_ZN3vcg6Point3IfEC2Efff(ptr noundef nonnull align 4 dereferenceable(12) %7, float noundef 0.000000e+00, float noundef 0.000000e+00, float noundef 0.000000e+00)
  %16 = getelementptr inbounds %"class.vcg::MovableCoordinateFrame", ptr %12, i32 0, i32 1
  call void @llvm.memcpy.p0.p0.i64(ptr align 4 %16, ptr align 4 %7, i64 12, i1 false)
  br label %17

17:                                               ; preds = %15, %3
  %18 = load i8, ptr %6, align 1
  %19 = trunc i8 %18 to i1
  br i1 %19, label %20, label %22

20:                                               ; preds = %17
  call void @_ZN3vcg6Point3IfEC2Efff(ptr noundef nonnull align 4 dereferenceable(12) %9, float noundef 1.000000e+00, float noundef 0.000000e+00, float noundef 0.000000e+00)
  call void @_ZN3vcg10QuaternionIfEC2EfRKNS_6Point3IfEE(ptr noundef nonnull align 4 dereferenceable(16) %8, float noundef 0.000000e+00, ptr noundef nonnull align 4 dereferenceable(12) %9)
  %21 = getelementptr inbounds %"class.vcg::MovableCoordinateFrame", ptr %12, i32 0, i32 2
  call void @llvm.memcpy.p0.p0.i64(ptr align 8 %21, ptr align 4 %8, i64 16, i1 false)
  br label %22

22:                                               ; preds = %20, %17
  ret void
}