; Function Attrs: mustprogress nofree norecurse nosync nounwind willreturn memory(argmem: write) uwtable
define void @_ZN3vcg22MovableCoordinateFrame5ResetEbb(ptr nocapture noundef nonnull writeonly align 8 dereferenceable(80) %0, i1 noundef zeroext %1, i1 noundef zeroext %2) unnamed_addr #2 align 2 {
  br i1 %1, label %4, label %6

4:                                                ; preds = %3
  %5 = getelementptr inbounds i8, ptr %0, i64 52
  store <2 x float> zeroinitializer, ptr %5, align 4
  %.sroa.37.0..sroa_idx = getelementptr inbounds i8, ptr %0, i64 60
  store float 0.000000e+00, ptr %.sroa.37.0..sroa_idx, align 4
  br label %6

6:                                                ; preds = %4, %3
  br i1 %2, label %7, label %9

7:                                                ; preds = %6
  %8 = getelementptr inbounds i8, ptr %0, i64 64
  store <4 x float> <float 1.000000e+00, float 0.000000e+00, float 0.000000e+00, float 0.000000e+00>, ptr %8, align 8
  br label %9

9:                                                ; preds = %7, %6
  ret void
}